target datalayout = "e-m:e-p270:32:32-p271:32:32-p272:64:64-i64:64-i128:128-f80:128-n8:16:32:64-S128"
target triple = "x86_64-pc-linux-gnu"

%"struct.open_spiel::y_game::Move" = type { i8, i8, i16 }
%"class.std::shared_ptr" = type { %"class.std::__shared_ptr" }
%"class.std::__shared_ptr" = type { ptr, %"class.std::__shared_count" }
%"class.std::__shared_count" = type { ptr }
%"struct.open_spiel::y_game::YState::Cell" = type <{ i8, i8, i16, i16, i8, i8 }>
%"class.open_spiel::y_game::YState" = type <{ %"class.open_spiel::State.base", [4 x i8], %"class.std::vector.14", i8, i8, [2 x i8], i32, i32, %"struct.open_spiel::y_game::Move", ptr, i8, [7 x i8] }>
%"class.open_spiel::State.base" = type <{ ptr, %"class.std::shared_ptr", i32, i32, %"class.std::vector.9", i32 }>
%"class.std::vector.9" = type { %"struct.std::_Vector_base.10" }
%"struct.std::_Vector_base.10" = type { %"struct.std::_Vector_base<open_spiel::State::PlayerAction, std::allocator<open_spiel::State::PlayerAction>>::_Vector_impl" }
%"struct.std::_Vector_base<open_spiel::State::PlayerAction, std::allocator<open_spiel::State::PlayerAction>>::_Vector_impl" = type { %"struct.std::_Vector_base<open_spiel::State::PlayerAction, std::allocator<open_spiel::State::PlayerAction>>::_Vector_impl_data" }
%"struct.std::_Vector_base<open_spiel::State::PlayerAction, std::allocator<open_spiel::State::PlayerAction>>::_Vector_impl_data" = type { ptr, ptr, ptr }
%"class.std::vector.14" = type { %"struct.std::_Vector_base.15" }
%"struct.std::_Vector_base.15" = type { %"struct.std::_Vector_base<open_spiel::y_game::YState::Cell, std::allocator<open_spiel::y_game::YState::Cell>>::_Vector_impl" }
%"struct.std::_Vector_base<open_spiel::y_game::YState::Cell, std::allocator<open_spiel::y_game::YState::Cell>>::_Vector_impl" = type { %"struct.std::_Vector_base<open_spiel::y_game::YState::Cell, std::allocator<open_spiel::y_game::YState::Cell>>::_Vector_impl_data" }
%"struct.std::_Vector_base<open_spiel::y_game::YState::Cell, std::allocator<open_spiel::y_game::YState::Cell>>::_Vector_impl_data" = type { ptr, ptr, ptr }

; Function Attrs: mustprogress nounwind uwtable
define linkonce_odr void @_ZSt4swapIiENSt9enable_ifIXsr6__and_ISt6__not_ISt15__is_tuple_likeIT_EESt21is_move_constructibleIS3_ESt18is_move_assignableIS3_EEE5valueEvE4typeERS3_SC_(ptr noundef nonnull align 4 dereferenceable(4) %0, ptr noundef nonnull align 4 dereferenceable(4) %1) #4 comdat {
  %3 = alloca ptr, align 8
  %4 = alloca ptr, align 8
  %5 = alloca i32, align 4
  store ptr %0, ptr %3, align 8
  store ptr %1, ptr %4, align 8
  %6 = load ptr, ptr %3, align 8
  %7 = load i32, ptr %6, align 4
  store i32 %7, ptr %5, align 4
  %8 = load ptr, ptr %4, align 8
  %9 = load i32, ptr %8, align 4
  %10 = load ptr, ptr %3, align 8
  store i32 %9, ptr %10, align 4
  %11 = load i32, ptr %5, align 4
  %12 = load ptr, ptr %4, align 8
  store i32 %11, ptr %12, align 4
  ret void
}

; Function Attrs: mustprogress nounwind uwtable
define linkonce_odr noundef nonnull align 2 dereferenceable(7) ptr @_ZNSt6vectorIN10open_spiel6y_game6YState4CellESaIS3_EEixEm(ptr noundef nonnull align 8 dereferenceable(24) %0, i64 noundef %1) #4 comdat align 2 {
  %3 = alloca ptr, align 8
  %4 = alloca i64, align 8
  store ptr %0, ptr %3, align 8
  store i64 %1, ptr %4, align 8
  %5 = load ptr, ptr %3, align 8
  %6 = getelementptr inbounds nuw %"struct.std::_Vector_base.15", ptr %5, i32 0, i32 0
  %7 = getelementptr inbounds nuw %"struct.std::_Vector_base<open_spiel::y_game::YState::Cell, std::allocator<open_spiel::y_game::YState::Cell>>::_Vector_impl_data", ptr %6, i32 0, i32 0
  %8 = load ptr, ptr %7, align 8
  %9 = load i64, ptr %4, align 8
  %10 = getelementptr inbounds %"struct.open_spiel::y_game::YState::Cell", ptr %8, i64 %9
  ret ptr %10
}

; Function Attrs: mustprogress nounwind uwtable
define noundef i32 @_ZN10open_spiel6y_game6YState15FindGroupLeaderEi(ptr noundef nonnull align 8 dereferenceable(113) %0, i32 noundef %1) #4 align 2 {
  %3 = alloca ptr, align 8
  %4 = alloca i32, align 4
  %5 = alloca i32, align 4
  store ptr %0, ptr %3, align 8
  store i32 %1, ptr %4, align 4
  %6 = load ptr, ptr %3, align 8
  %7 = getelementptr inbounds nuw %"class.open_spiel::y_game::YState", ptr %6, i32 0, i32 2
  %8 = load i32, ptr %4, align 4
  %9 = sext i32 %8 to i64
  %10 = call noundef nonnull align 2 dereferenceable(7) ptr @_ZNSt6vectorIN10open_spiel6y_game6YState4CellESaIS3_EEixEm(ptr noundef nonnull align 8 dereferenceable(24) %7, i64 noundef %9) #3
  %11 = getelementptr inbounds nuw %"struct.open_spiel::y_game::YState::Cell", ptr %10, i32 0, i32 2
  %12 = load i16, ptr %11, align 2
  %13 = zext i16 %12 to i32
  store i32 %13, ptr %5, align 4
  %14 = load i32, ptr %5, align 4
  %15 = load i32, ptr %4, align 4
  %16 = icmp ne i32 %14, %15
  br i1 %16, label %17, label %44

17:                                               ; preds = %2
  br label %18

18:                                               ; preds = %26, %17
  %19 = getelementptr inbounds nuw %"class.open_spiel::y_game::YState", ptr %6, i32 0, i32 2
  %20 = load i32, ptr %5, align 4
  %21 = sext i32 %20 to i64
  %22 = call noundef nonnull align 2 dereferenceable(7) ptr @_ZNSt6vectorIN10open_spiel6y_game6YState4CellESaIS3_EEixEm(ptr noundef nonnull align 8 dereferenceable(24) %19, i64 noundef %21) #3
  %23 = getelementptr inbounds nuw %"struct.open_spiel::y_game::YState::Cell", ptr %22, i32 0, i32 2
  %24 = load i16, ptr %23, align 2
  %25 = zext i16 %24 to i32
  store i32 %25, ptr %5, align 4
  br label %26

26:                                               ; preds = %18
  %27 = load i32, ptr %5, align 4
  %28 = getelementptr inbounds nuw %"class.open_spiel::y_game::YState", ptr %6, i32 0, i32 2
  %29 = load i32, ptr %5, align 4
  %30 = sext i32 %29 to i64
  %31 = call noundef nonnull align 2 dereferenceable(7) ptr @_ZNSt6vectorIN10open_spiel6y_game6YState4CellESaIS3_EEixEm(ptr noundef nonnull align 8 dereferenceable(24) %28, i64 noundef %30) #3
  %32 = getelementptr inbounds nuw %"struct.open_spiel::y_game::YState::Cell", ptr %31, i32 0, i32 2
  %33 = load i16, ptr %32, align 2
  %34 = zext i16 %33 to i32
  %35 = icmp ne i32 %27, %34
  br i1 %35, label %18, label %36, !llvm.loop !11

36:                                               ; preds = %26
  %37 = load i32, ptr %5, align 4
  %38 = trunc i32 %37 to i16
  %39 = getelementptr inbounds nuw %"class.open_spiel::y_game::YState", ptr %6, i32 0, i32 2
  %40 = load i32, ptr %4, align 4
  %41 = sext i32 %40 to i64
  %42 = call noundef nonnull align 2 dereferenceable(7) ptr @_ZNSt6vectorIN10open_spiel6y_game6YState4CellESaIS3_EEixEm(ptr noundef nonnull align 8 dereferenceable(24) %39, i64 noundef %41) #3
  %43 = getelementptr inbounds nuw %"struct.open_spiel::y_game::YState::Cell", ptr %42, i32 0, i32 2
  store i16 %38, ptr %43, align 2
  br label %44

44:                                               ; preds = %36, %2
  %45 = load i32, ptr %5, align 4
  ret i32 %45
}

; Function Attrs: mustprogress nounwind uwtable
define noundef zeroext i1 @_ZN10open_spiel6y_game6YState10JoinGroupsEii(ptr noundef nonnull align 8 dereferenceable(113) %0, i32 noundef %1, i32 noundef %2) #4 align 2 {
  %4 = alloca i1, align 1
  %5 = alloca ptr, align 8
  %6 = alloca i32, align 4
  %7 = alloca i32, align 4
  %8 = alloca i32, align 4
  %9 = alloca i32, align 4
  store ptr %0, ptr %5, align 8
  store i32 %1, ptr %6, align 4
  store i32 %2, ptr %7, align 4
  %10 = load ptr, ptr %5, align 8
  %11 = load i32, ptr %6, align 4
  %12 = call noundef i32 @_ZN10open_spiel6y_game6YState15FindGroupLeaderEi(ptr noundef nonnull align 8 dereferenceable(113) %10, i32 noundef %11)
  store i32 %12, ptr %8, align 4
  %13 = load i32, ptr %7, align 4
  %14 = call noundef i32 @_ZN10open_spiel6y_game6YState15FindGroupLeaderEi(ptr noundef nonnull align 8 dereferenceable(113) %10, i32 noundef %13)
  store i32 %14, ptr %9, align 4
  %15 = load i32, ptr %8, align 4
  %16 = load i32, ptr %9, align 4
  %17 = icmp eq i32 %15, %16
  br i1 %17, label %18, label %19

18:                                               ; preds = %3
  store i1 true, ptr %4, align 1
  br label %76

19:                                               ; preds = %3
  %20 = getelementptr inbounds nuw %"class.open_spiel::y_game::YState", ptr %10, i32 0, i32 2
  %21 = load i32, ptr %8, align 4
  %22 = sext i32 %21 to i64
  %23 = call noundef nonnull align 2 dereferenceable(7) ptr @_ZNSt6vectorIN10open_spiel6y_game6YState4CellESaIS3_EEixEm(ptr noundef nonnull align 8 dereferenceable(24) %20, i64 noundef %22) #3
  %24 = getelementptr inbounds nuw %"struct.open_spiel::y_game::YState::Cell", ptr %23, i32 0, i32 3
  %25 = load i16, ptr %24, align 2
  %26 = zext i16 %25 to i32
  %27 = getelementptr inbounds nuw %"class.open_spiel::y_game::YState", ptr %10, i32 0, i32 2
  %28 = load i32, ptr %9, align 4
  %29 = sext i32 %28 to i64
  %30 = call noundef nonnull align 2 dereferenceable(7) ptr @_ZNSt6vectorIN10open_spiel6y_game6YState4CellESaIS3_EEixEm(ptr noundef nonnull align 8 dereferenceable(24) %27, i64 noundef %29) #3
  %31 = getelementptr inbounds nuw %"struct.open_spiel::y_game::YState::Cell", ptr %30, i32 0, i32 3
  %32 = load i16, ptr %31, align 2
  %33 = zext i16 %32 to i32
  %34 = icmp slt i32 %26, %33
  br i1 %34, label %35, label %36

35:                                               ; preds = %19
  call void @_ZSt4swapIiENSt9enable_ifIXsr6__and_ISt6__not_ISt15__is_tuple_likeIT_EESt21is_move_constructibleIS3_ESt18is_move_assignableIS3_EEE5valueEvE4typeERS3_SC_(ptr noundef nonnull align 4 dereferenceable(4) %8, ptr noundef nonnull align 4 dereferenceable(4) %9) #3
  br label %36

36:                                               ; preds = %35, %19
  %37 = load i32, ptr %8, align 4
  %38 = trunc i32 %37 to i16
  %39 = getelementptr inbounds nuw %"class.open_spiel::y_game::YState", ptr %10, i32 0, i32 2
  %40 = load i32, ptr %9, align 4
  %41 = sext i32 %40 to i64
  %42 = call noundef nonnull align 2 dereferenceable(7) ptr @_ZNSt6vectorIN10open_spiel6y_game6YState4CellESaIS3_EEixEm(ptr noundef nonnull align 8 dereferenceable(24) %39, i64 noundef %41) #3
  %43 = getelementptr inbounds nuw %"struct.open_spiel::y_game::YState::Cell", ptr %42, i32 0, i32 2
  store i16 %38, ptr %43, align 2
  %44 = getelementptr inbounds nuw %"class.open_spiel::y_game::YState", ptr %10, i32 0, i32 2
  %45 = load i32, ptr %9, align 4
  %46 = sext i32 %45 to i64
  %47 = call noundef nonnull align 2 dereferenceable(7) ptr @_ZNSt6vectorIN10open_spiel6y_game6YState4CellESaIS3_EEixEm(ptr noundef nonnull align 8 dereferenceable(24) %44, i64 noundef %46) #3
  %48 = getelementptr inbounds nuw %"struct.open_spiel::y_game::YState::Cell", ptr %47, i32 0, i32 3
  %49 = load i16, ptr %48, align 2
  %50 = zext i16 %49 to i32
  %51 = getelementptr inbounds nuw %"class.open_spiel::y_game::YState", ptr %10, i32 0, i32 2
  %52 = load i32, ptr %8, align 4
  %53 = sext i32 %52 to i64
  %54 = call noundef nonnull align 2 dereferenceable(7) ptr @_ZNSt6vectorIN10open_spiel6y_game6YState4CellESaIS3_EEixEm(ptr noundef nonnull align 8 dereferenceable(24) %51, i64 noundef %53) #3
  %55 = getelementptr inbounds nuw %"struct.open_spiel::y_game::YState::Cell", ptr %54, i32 0, i32 3
  %56 = load i16, ptr %55, align 2
  %57 = zext i16 %56 to i32
  %58 = add nsw i32 %57, %50
  %59 = trunc i32 %58 to i16
  store i16 %59, ptr %55, align 2
  %60 = getelementptr inbounds nuw %"class.open_spiel::y_game::YState", ptr %10, i32 0, i32 2
  %61 = load i32, ptr %9, align 4
  %62 = sext i32 %61 to i64
  %63 = call noundef nonnull align 2 dereferenceable(7) ptr @_ZNSt6vectorIN10open_spiel6y_game6YState4CellESaIS3_EEixEm(ptr noundef nonnull align 8 dereferenceable(24) %60, i64 noundef %62) #3
  %64 = getelementptr inbounds nuw %"struct.open_spiel::y_game::YState::Cell", ptr %63, i32 0, i32 4
  %65 = load i8, ptr %64, align 2
  %66 = zext i8 %65 to i32
  %67 = getelementptr inbounds nuw %"class.open_spiel::y_game::YState", ptr %10, i32 0, i32 2
  %68 = load i32, ptr %8, align 4
  %69 = sext i32 %68 to i64
  %70 = call noundef nonnull align 2 dereferenceable(7) ptr @_ZNSt6vectorIN10open_spiel6y_game6YState4CellESaIS3_EEixEm(ptr noundef nonnull align 8 dereferenceable(24) %67, i64 noundef %69) #3
  %71 = getelementptr inbounds nuw %"struct.open_spiel::y_game::YState::Cell", ptr %70, i32 0, i32 4
  %72 = load i8, ptr %71, align 2
  %73 = zext i8 %72 to i32
  %74 = or i32 %73, %66
  %75 = trunc i32 %74 to i8
  store i8 %75, ptr %71, align 2
  store i1 false, ptr %4, align 1
  br label %76

76:                                               ; preds = %36, %18
  %77 = load i1, ptr %4, align 1
  ret i1 %77
}