; Function Attrs: mustprogress nofree norecurse nosync nounwind memory(readwrite, inaccessiblemem: none) uwtable
define noundef zeroext i1 @_ZN10open_spiel6y_game6YState10JoinGroupsEii(ptr nocapture noundef nonnull readonly align 8 dereferenceable(113) %0, i32 noundef %1, i32 noundef %2) local_unnamed_addr #9 align 2 {
  %4 = getelementptr inbounds nuw i8, ptr %0, i64 64
  %5 = sext i32 %1 to i64
  %6 = load ptr, ptr %4, align 8
  %7 = getelementptr inbounds %"struct.open_spiel::y_game::YState::Cell", ptr %6, i64 %5, i32 2
  %8 = load i16, ptr %7, align 2
  %9 = zext i16 %8 to i32
  %.not.i = icmp eq i32 %1, %9
  br i1 %.not.i, label %_ZN10open_spiel6y_game6YState15FindGroupLeaderEi.exit, label %.preheader.i

.preheader.i:                                     ; preds = %3, %.preheader.i
  %.1.i = phi i32 [ %13, %.preheader.i ], [ %9, %3 ]
  %10 = zext nneg i32 %.1.i to i64
  %11 = getelementptr inbounds %"struct.open_spiel::y_game::YState::Cell", ptr %6, i64 %10, i32 2
  %12 = load i16, ptr %11, align 2
  %13 = zext i16 %12 to i32
  %14 = zext i16 %12 to i64
  %15 = getelementptr inbounds %"struct.open_spiel::y_game::YState::Cell", ptr %6, i64 %14, i32 2
  %16 = load i16, ptr %15, align 2
  %.not12.i = icmp eq i16 %12, %16
  br i1 %.not12.i, label %17, label %.preheader.i, !llvm.loop !38

17:                                               ; preds = %.preheader.i
  store i16 %12, ptr %7, align 2
  %.pre = load ptr, ptr %4, align 8
  br label %_ZN10open_spiel6y_game6YState15FindGroupLeaderEi.exit

_ZN10open_spiel6y_game6YState15FindGroupLeaderEi.exit: ; preds = %3, %17
  %18 = phi ptr [ %.pre, %17 ], [ %6, %3 ]
  %.0.i = phi i32 [ %13, %17 ], [ %1, %3 ]
  %19 = sext i32 %2 to i64
  %20 = getelementptr inbounds %"struct.open_spiel::y_game::YState::Cell", ptr %18, i64 %19, i32 2
  %21 = load i16, ptr %20, align 2
  %22 = zext i16 %21 to i32
  %.not.i4 = icmp eq i32 %2, %22
  br i1 %.not.i4, label %_ZN10open_spiel6y_game6YState15FindGroupLeaderEi.exit9, label %.preheader.i5

.preheader.i5:                                    ; preds = %_ZN10open_spiel6y_game6YState15FindGroupLeaderEi.exit, %.preheader.i5
  %.1.i6 = phi i32 [ %26, %.preheader.i5 ], [ %22, %_ZN10open_spiel6y_game6YState15FindGroupLeaderEi.exit ]
  %23 = zext nneg i32 %.1.i6 to i64
  %24 = getelementptr inbounds %"struct.open_spiel::y_game::YState::Cell", ptr %18, i64 %23, i32 2
  %25 = load i16, ptr %24, align 2
  %26 = zext i16 %25 to i32
  %27 = zext i16 %25 to i64
  %28 = getelementptr inbounds %"struct.open_spiel::y_game::YState::Cell", ptr %18, i64 %27, i32 2
  %29 = load i16, ptr %28, align 2
  %.not12.i7 = icmp eq i16 %25, %29
  br i1 %.not12.i7, label %30, label %.preheader.i5, !llvm.loop !38

30:                                               ; preds = %.preheader.i5
  store i16 %25, ptr %20, align 2
  br label %_ZN10open_spiel6y_game6YState15FindGroupLeaderEi.exit9

_ZN10open_spiel6y_game6YState15FindGroupLeaderEi.exit9: ; preds = %_ZN10open_spiel6y_game6YState15FindGroupLeaderEi.exit, %30
  %.0.i8 = phi i32 [ %26, %30 ], [ %2, %_ZN10open_spiel6y_game6YState15FindGroupLeaderEi.exit ]
  %31 = icmp eq i32 %.0.i, %.0.i8
  br i1 %31, label %57, label %32

32:                                               ; preds = %_ZN10open_spiel6y_game6YState15FindGroupLeaderEi.exit9
  %33 = sext i32 %.0.i to i64
  %34 = load ptr, ptr %4, align 8
  %35 = getelementptr inbounds %"struct.open_spiel::y_game::YState::Cell", ptr %34, i64 %33, i32 3
  %36 = load i16, ptr %35, align 2
  %37 = zext nneg i32 %.0.i8 to i64
  %38 = getelementptr inbounds %"struct.open_spiel::y_game::YState::Cell", ptr %34, i64 %37, i32 3
  %39 = load i16, ptr %38, align 2
  %40 = icmp ult i16 %36, %39
  %spec.select = select i1 %40, i32 %.0.i8, i32 %.0.i
  %spec.select20 = select i1 %40, i32 %.0.i, i32 %.0.i8
  %41 = trunc i32 %spec.select to i16
  %42 = sext i32 %spec.select20 to i64
  %43 = getelementptr inbounds %"struct.open_spiel::y_game::YState::Cell", ptr %34, i64 %42, i32 2
  store i16 %41, ptr %43, align 2
  %44 = load ptr, ptr %4, align 8
  %45 = getelementptr inbounds %"struct.open_spiel::y_game::YState::Cell", ptr %44, i64 %42, i32 3
  %46 = load i16, ptr %45, align 2
  %47 = sext i32 %spec.select to i64
  %48 = getelementptr inbounds %"struct.open_spiel::y_game::YState::Cell", ptr %44, i64 %47, i32 3
  %49 = load i16, ptr %48, align 2
  %50 = add i16 %49, %46
  store i16 %50, ptr %48, align 2
  %51 = load ptr, ptr %4, align 8
  %52 = getelementptr inbounds %"struct.open_spiel::y_game::YState::Cell", ptr %51, i64 %42, i32 4
  %53 = load i8, ptr %52, align 2
  %54 = getelementptr inbounds %"struct.open_spiel::y_game::YState::Cell", ptr %51, i64 %47, i32 4
  %55 = load i8, ptr %54, align 2
  %56 = or i8 %55, %53
  store i8 %56, ptr %54, align 2
  br label %57

57:                                               ; preds = %_ZN10open_spiel6y_game6YState15FindGroupLeaderEi.exit9, %32
  ret i1 %31
}